target datalayout = "e-m:e-p270:32:32-p271:32:32-p272:64:64-i64:64-i128:128-f80:128-n8:16:32:64-S128"
target triple = "x86_64-pc-linux-gnu"

%struct.SDL_Pen = type { i32, ptr, %struct.SDL_PenInfo, [7 x float], float, float, i32, ptr }
%struct.SDL_PenInfo = type { i32, float, i32, i32, i32 }

@pen_device_rwlock = internal global ptr null, align 8
@pen_device_count = internal global i32 0, align 4
@pen_devices = internal global ptr null, align 8
@.str.1 = private unnamed_addr constant [24 x i8] c"Invalid pen instance ID\00", align 1

; Function Attrs: nounwind uwtable
define internal ptr @FindPenByInstanceId(i32 noundef %0) #0 {
  %2 = alloca ptr, align 8
  %3 = alloca i32, align 4
  %4 = alloca i32, align 4
  %5 = alloca i32, align 4
  store i32 %0, ptr %3, align 4
  %6 = load i32, ptr %3, align 4
  %7 = icmp ne i32 %6, 0
  br i1 %7, label %8, label %35

8:                                                ; preds = %1
  call void @llvm.lifetime.start.p0(i64 4, ptr %4) #6
  store i32 0, ptr %4, align 4
  br label %9

9:                                                ; preds = %29, %8
  %10 = load i32, ptr %4, align 4
  %11 = load i32, ptr @pen_device_count, align 4
  %12 = icmp slt i32 %10, %11
  br i1 %12, label %14, label %13

13:                                               ; preds = %9
  store i32 2, ptr %5, align 4
  br label %32

14:                                               ; preds = %9
  %15 = load ptr, ptr @pen_devices, align 8
  %16 = load i32, ptr %4, align 4
  %17 = sext i32 %16 to i64
  %18 = getelementptr inbounds %struct.SDL_Pen, ptr %15, i64 %17
  %19 = getelementptr inbounds nuw %struct.SDL_Pen, ptr %18, i32 0, i32 0
  %20 = load i32, ptr %19, align 8
  %21 = load i32, ptr %3, align 4
  %22 = icmp eq i32 %20, %21
  br i1 %22, label %23, label %28

23:                                               ; preds = %14
  %24 = load ptr, ptr @pen_devices, align 8
  %25 = load i32, ptr %4, align 4
  %26 = sext i32 %25 to i64
  %27 = getelementptr inbounds %struct.SDL_Pen, ptr %24, i64 %26
  store ptr %27, ptr %2, align 8
  store i32 1, ptr %5, align 4
  br label %32

28:                                               ; preds = %14
  br label %29

29:                                               ; preds = %28
  %30 = load i32, ptr %4, align 4
  %31 = add nsw i32 %30, 1
  store i32 %31, ptr %4, align 4
  br label %9, !llvm.loop !7

32:                                               ; preds = %23, %13
  call void @llvm.lifetime.end.p0(i64 4, ptr %4) #6
  %33 = load i32, ptr %5, align 4
  switch i32 %33, label %39 [
    i32 2, label %34
    i32 1, label %37
  ]

34:                                               ; preds = %32
  br label %35

35:                                               ; preds = %34, %1
  %36 = call zeroext i1 (ptr, ...) @SDL_SetError_REAL(ptr noundef @.str.1)
  store ptr null, ptr %2, align 8
  br label %37

37:                                               ; preds = %35, %32
  %38 = load ptr, ptr %2, align 8
  ret ptr %38

39:                                               ; preds = %32
  unreachable
}

; Function Attrs: nounwind uwtable
define hidden i32 @SDL_GetPenStatus(i32 noundef %0, ptr noundef %1, i32 noundef %2) #0 {
  %4 = alloca i32, align 4
  %5 = alloca ptr, align 8
  %6 = alloca i32, align 4
  %7 = alloca ptr, align 8
  %8 = alloca i32, align 4
  store i32 %0, ptr %4, align 4
  store ptr %1, ptr %5, align 8
  store i32 %2, ptr %6, align 4
  %9 = load i32, ptr %6, align 4
  %10 = icmp slt i32 %9, 0
  br i1 %10, label %11, label %12

11:                                               ; preds = %3
  store i32 0, ptr %6, align 4
  br label %12

12:                                               ; preds = %11, %3
  %13 = load ptr, ptr @pen_device_rwlock, align 8
  call void @SDL_LockRWLockForReading_REAL(ptr noundef %13)
  call void @llvm.lifetime.start.p0(i64 8, ptr %7) #6
  %14 = load i32, ptr %4, align 4
  %15 = call ptr @FindPenByInstanceId(i32 noundef %14)
  store ptr %15, ptr %7, align 8
  call void @llvm.lifetime.start.p0(i64 4, ptr %8) #6
  store i32 0, ptr %8, align 4
  %16 = load ptr, ptr %7, align 8
  %17 = icmp ne ptr %16, null
  br i1 %17, label %18, label %52

18:                                               ; preds = %12
  %19 = load ptr, ptr %7, align 8
  %20 = getelementptr inbounds nuw %struct.SDL_Pen, ptr %19, i32 0, i32 6
  %21 = load i32, ptr %20, align 8
  store i32 %21, ptr %8, align 4
  %22 = load ptr, ptr %5, align 8
  %23 = icmp ne ptr %22, null
  br i1 %23, label %24, label %51

24:                                               ; preds = %18
  %25 = load i32, ptr %6, align 4
  %26 = icmp ne i32 %25, 0
  br i1 %26, label %27, label %51

27:                                               ; preds = %24
  %28 = load ptr, ptr %5, align 8
  %29 = load ptr, ptr %7, align 8
  %30 = getelementptr inbounds nuw %struct.SDL_Pen, ptr %29, i32 0, i32 3
  %31 = getelementptr inbounds [7 x float], ptr %30, i64 0, i64 0
  %32 = load i32, ptr %6, align 4
  %33 = icmp slt i32 %32, 7
  br i1 %33, label %34, label %36

34:                                               ; preds = %27
  %35 = load i32, ptr %6, align 4
  br label %37

36:                                               ; preds = %27
  br label %37

37:                                               ; preds = %36, %34
  %38 = phi i32 [ %35, %34 ], [ 7, %36 ]
  %39 = sext i32 %38 to i64
  %40 = mul i64 %39, 4
  call void @llvm.memcpy.p0.p0.i64(ptr align 4 %28, ptr align 4 %31, i64 %40, i1 false)
  %41 = load i32, ptr %6, align 4
  %42 = icmp sgt i32 %41, 7
  br i1 %42, label %43, label %50

43:                                               ; preds = %37
  %44 = load ptr, ptr %5, align 8
  %45 = getelementptr inbounds float, ptr %44, i64 7
  %46 = load i32, ptr %6, align 4
  %47 = sub nsw i32 %46, 7
  %48 = sext i32 %47 to i64
  %49 = mul i64 %48, 4
  call void @llvm.memset.p0.i64(ptr align 4 %45, i8 0, i64 %49, i1 false)
  br label %50

50:                                               ; preds = %43, %37
  br label %51

51:                                               ; preds = %50, %24, %18
  br label %52

52:                                               ; preds = %51, %12
  %53 = load ptr, ptr @pen_device_rwlock, align 8
  call void @SDL_UnlockRWLock_REAL(ptr noundef %53)
  %54 = load i32, ptr %8, align 4
  call void @llvm.lifetime.end.p0(i64 4, ptr %8) #6
  call void @llvm.lifetime.end.p0(i64 8, ptr %7) #6
  ret i32 %54
}