; Function Attrs: nounwind uwtable
define hidden i32 @SDL_GetPenStatus(i32 noundef %0, ptr noundef writeonly captures(address_is_null) %1, i32 noundef %2) local_unnamed_addr #0 {
  %spec.store.select = tail call i32 @llvm.smax.i32(i32 %2, i32 0)
  %4 = load ptr, ptr @pen_device_rwlock, align 8
  tail call void @SDL_LockRWLockForReading_REAL(ptr noundef %4) #8
  %.not.i = icmp eq i32 %0, 0
  br i1 %.not.i, label %FindPenByInstanceId.exit.thread, label %.preheader.i

.preheader.i:                                     ; preds = %3
  %5 = load i32, ptr @pen_device_count, align 4
  %6 = icmp sgt i32 %5, 0
  br i1 %6, label %.lr.ph.i, label %FindPenByInstanceId.exit.thread

.lr.ph.i:                                         ; preds = %.preheader.i
  %7 = load ptr, ptr @pen_devices, align 8
  %wide.trip.count.i = zext nneg i32 %5 to i64
  br label %9

8:                                                ; preds = %9
  %indvars.iv.next.i = add nuw nsw i64 %indvars.iv.i, 1
  %exitcond.not.i = icmp eq i64 %indvars.iv.next.i, %wide.trip.count.i
  br i1 %exitcond.not.i, label %FindPenByInstanceId.exit.thread, label %9, !llvm.loop !7

9:                                                ; preds = %8, %.lr.ph.i
  %indvars.iv.i = phi i64 [ 0, %.lr.ph.i ], [ %indvars.iv.next.i, %8 ]
  %10 = getelementptr inbounds nuw %struct.SDL_Pen, ptr %7, i64 %indvars.iv.i
  %11 = load i32, ptr %10, align 8
  %12 = icmp eq i32 %11, %0
  br i1 %12, label %FindPenByInstanceId.exit, label %8

FindPenByInstanceId.exit.thread:                  ; preds = %8, %3, %.preheader.i
  %13 = tail call zeroext i1 (ptr, ...) @SDL_SetError_REAL(ptr noundef nonnull @.str.1) #8
  br label %29

FindPenByInstanceId.exit:                         ; preds = %9
  %14 = getelementptr inbounds nuw i8, ptr %10, i64 72
  %15 = load i32, ptr %14, align 8
  %16 = icmp ne ptr %1, null
  %17 = icmp sgt i32 %2, 0
  %or.cond = and i1 %16, %17
  br i1 %or.cond, label %18, label %29

18:                                               ; preds = %FindPenByInstanceId.exit
  %19 = getelementptr inbounds nuw i8, ptr %10, i64 36
  %20 = tail call i32 @llvm.umin.i32(i32 %spec.store.select, i32 7)
  %21 = shl nuw nsw i32 %20, 2
  %22 = zext nneg i32 %21 to i64
  tail call void @llvm.memcpy.p0.p0.i64(ptr nonnull align 4 %1, ptr nonnull align 4 %19, i64 %22, i1 false)
  %23 = icmp samesign ugt i32 %2, 7
  br i1 %23, label %24, label %29

24:                                               ; preds = %18
  %25 = getelementptr inbounds nuw i8, ptr %1, i64 28
  %26 = add nsw i32 %spec.store.select, -7
  %27 = zext nneg i32 %26 to i64
  %28 = shl nuw nsw i64 %27, 2
  tail call void @llvm.memset.p0.i64(ptr nonnull align 4 %25, i8 0, i64 %28, i1 false)
  br label %29

29:                                               ; preds = %FindPenByInstanceId.exit.thread, %FindPenByInstanceId.exit, %24, %18
  %.0 = phi i32 [ %15, %24 ], [ %15, %18 ], [ %15, %FindPenByInstanceId.exit ], [ 0, %FindPenByInstanceId.exit.thread ]
  %30 = load ptr, ptr @pen_device_rwlock, align 8
  tail call void @SDL_UnlockRWLock_REAL(ptr noundef %30) #8
  ret i32 %.0
}